target datalayout = "e-m:e-p270:32:32-p271:32:32-p272:64:64-i64:64-i128:128-f80:128-n8:16:32:64-S128"
target triple = "x86_64-pc-linux-gnu"

%class.QString = type { %struct.QArrayDataPointer }
%struct.QArrayDataPointer = type { ptr, ptr, i64 }
%class.WelcomePage = type { %class.QFrame, ptr, %class.QString, %class.QString, ptr, ptr }
%class.QFrame = type { %class.QWidget }
%class.QWidget = type { %class.QObject, %class.QPaintDevice.base, ptr }
%class.QObject = type { ptr, %class.QScopedPointer }
%class.QScopedPointer = type { ptr }
%class.QPaintDevice.base = type <{ ptr, i16 }>
%class.QSize = type { i32, i32 }
%class.QEvent = type { ptr, i16, i8, i8, i8, i8, i16 }
%class.QResizeEvent = type { %class.QEvent, %class.QSize, %class.QSize }

; Function Attrs: mustprogress nounwind uwtable
define linkonce_odr noundef nonnull align 4 dereferenceable(8) ptr @_ZNK12QResizeEvent4sizeEv(ptr noundef nonnull align 8 dereferenceable(32) %0) #1 comdat align 2 {
  %2 = alloca ptr, align 8
  store ptr %0, ptr %2, align 8
  %3 = load ptr, ptr %2, align 8
  %4 = getelementptr inbounds %class.QResizeEvent, ptr %3, i32 0, i32 1
  ret ptr %4
}

; Function Attrs: mustprogress uwtable
define void @_ZN11WelcomePage11resizeEventEP12QResizeEvent(ptr noundef nonnull align 8 dereferenceable(112) %0, ptr noundef %1) unnamed_addr #0 align 2 {
  %3 = alloca ptr, align 8
  %4 = alloca ptr, align 8
  store ptr %0, ptr %3, align 8
  store ptr %1, ptr %4, align 8
  %5 = load ptr, ptr %3, align 8
  %6 = getelementptr inbounds %class.WelcomePage, ptr %5, i32 0, i32 4
  %7 = load ptr, ptr %6, align 8
  %8 = icmp ne ptr %7, null
  br i1 %8, label %9, label %14

9:                                                ; preds = %2
  %10 = getelementptr inbounds %class.WelcomePage, ptr %5, i32 0, i32 4
  %11 = load ptr, ptr %10, align 8
  %12 = load ptr, ptr %4, align 8
  %13 = call noundef nonnull align 4 dereferenceable(8) ptr @_ZNK12QResizeEvent4sizeEv(ptr noundef nonnull align 8 dereferenceable(32) %12)
  call void @_ZN7QWidget6resizeERK5QSize(ptr noundef nonnull align 8 dereferenceable(40) %11, ptr noundef nonnull align 4 dereferenceable(8) %13)
  br label %14

14:                                               ; preds = %9, %2
  %15 = load ptr, ptr %4, align 8
  call void @_ZN7QWidget11resizeEventEP12QResizeEvent(ptr noundef nonnull align 8 dereferenceable(40) %5, ptr noundef %15)
  ret void
}