; Function Attrs: mustprogress uwtable
define void @_ZN11WelcomePage11resizeEventEP12QResizeEvent(ptr noundef nonnull align 8 dereferenceable(112) %0, ptr noundef %1) unnamed_addr #0 align 2 {
  %3 = getelementptr inbounds i8, ptr %0, i64 96
  %4 = load ptr, ptr %3, align 8
  %.not = icmp eq ptr %4, null
  br i1 %.not, label %7, label %5

5:                                                ; preds = %2
  %6 = getelementptr inbounds i8, ptr %1, i64 16
  tail call void @_ZN7QWidget6resizeERK5QSize(ptr noundef nonnull align 8 dereferenceable(40) %4, ptr noundef nonnull align 4 dereferenceable(8) %6)
  br label %7

7:                                                ; preds = %5, %2
  tail call void @_ZN7QWidget11resizeEventEP12QResizeEvent(ptr noundef nonnull align 8 dereferenceable(40) %0, ptr noundef %1)
  ret void
}